; Function Attrs: mustprogress uwtable
define hidden void @_ZN7bit2intclEP4exprR7obj_refIS0_11ast_managerERS2_I3appS3_E(ptr noundef nonnull align 8 dereferenceable(296) %0, ptr noundef %1, ptr noundef nonnull align 8 captures(none) dereferenceable(16) %2, ptr noundef nonnull align 8 captures(none) dereferenceable(16) %3) local_unnamed_addr #3 align 2 {
  %5 = alloca ptr, align 8
  %6 = alloca ptr, align 8
  %7 = alloca %"class.bit2int::expr_reduce", align 8
  %8 = getelementptr inbounds nuw i8, ptr %0, i64 208
  tail call void @_ZN8expr_map5flushEv(ptr noundef nonnull align 8 dereferenceable(64) %8)
  call void @llvm.lifetime.start.p0(i64 8, ptr nonnull %7) #19
  store ptr %0, ptr %7, align 8, !tbaa !56
  call void @_Z12for_each_astIN7bit2int11expr_reduceEEvRT_P3astb(ptr noundef nonnull align 8 dereferenceable(8) %7, ptr noundef %1, i1 noundef zeroext false)
  call void @llvm.lifetime.start.p0(i64 8, ptr nonnull %5) #19
  store ptr null, ptr %5, align 8, !tbaa !58
  call void @llvm.lifetime.start.p0(i64 8, ptr nonnull %6) #19
  store ptr null, ptr %6, align 8, !tbaa !59
  call void @_ZNK8expr_map3getEP4exprRS1_RP3app(ptr noundef nonnull align 8 dereferenceable(64) %8, ptr noundef %1, ptr noundef nonnull align 8 dereferenceable(8) %5, ptr noundef nonnull align 8 dereferenceable(8) %6)
  %9 = load ptr, ptr %5, align 8, !tbaa !58
  call void @llvm.lifetime.end.p0(i64 8, ptr nonnull %6) #19
  call void @llvm.lifetime.end.p0(i64 8, ptr nonnull %5) #19
  %.not.i = icmp eq ptr %9, null
  br i1 %.not.i, label %13, label %_ZN11ast_manager7inc_refEP3ast.exit.i

_ZN11ast_manager7inc_refEP3ast.exit.i:            ; preds = %4
  %10 = getelementptr inbounds nuw i8, ptr %9, i64 8
  %11 = load i32, ptr %10, align 4, !tbaa !18
  %12 = add i32 %11, 1
  store i32 %12, ptr %10, align 4, !tbaa !18
  br label %13

13:                                               ; preds = %_ZN11ast_manager7inc_refEP3ast.exit.i, %4
  %14 = load ptr, ptr %2, align 8, !tbaa !11
  %.not.i4.i = icmp eq ptr %14, null
  br i1 %.not.i4.i, label %_ZN7obj_refI4expr11ast_managerEaSEPS0_.exit, label %15

15:                                               ; preds = %13
  %16 = getelementptr inbounds nuw i8, ptr %2, i64 8
  %17 = load ptr, ptr %16, align 8, !tbaa !21
  %18 = getelementptr inbounds nuw i8, ptr %14, i64 8
  %19 = load i32, ptr %18, align 4, !tbaa !18
  %20 = add i32 %19, -1
  store i32 %20, ptr %18, align 4, !tbaa !18
  %21 = icmp eq i32 %20, 0
  br i1 %21, label %22, label %_ZN7obj_refI4expr11ast_managerEaSEPS0_.exit

22:                                               ; preds = %15
  call void @_ZN11ast_manager11delete_nodeEP3ast(ptr noundef nonnull align 8 dereferenceable(976) %17, ptr noundef nonnull %14)
  br label %_ZN7obj_refI4expr11ast_managerEaSEPS0_.exit

_ZN7obj_refI4expr11ast_managerEaSEPS0_.exit:      ; preds = %13, %15, %22
  store ptr %9, ptr %2, align 8, !tbaa !11
  %23 = load ptr, ptr %0, align 8, !tbaa !61
  %24 = getelementptr inbounds nuw i8, ptr %23, i64 712
  %25 = load i32, ptr %24, align 8, !tbaa !71
  %26 = icmp eq i32 %25, 0
  %.not = icmp eq ptr %1, %9
  %or.cond = or i1 %.not, %26
  br i1 %or.cond, label %42, label %27

27:                                               ; preds = %_ZN7obj_refI4expr11ast_managerEaSEPS0_.exit
  %28 = call noundef ptr @_ZN11ast_manager10mk_rewriteEP4exprS1_(ptr noundef nonnull align 8 dereferenceable(976) %23, ptr noundef %1, ptr noundef %9)
  %.not.i9 = icmp eq ptr %28, null
  br i1 %.not.i9, label %32, label %_ZN11ast_manager7inc_refEP3ast.exit.i10

_ZN11ast_manager7inc_refEP3ast.exit.i10:          ; preds = %27
  %29 = getelementptr inbounds nuw i8, ptr %28, i64 8
  %30 = load i32, ptr %29, align 4, !tbaa !18
  %31 = add i32 %30, 1
  store i32 %31, ptr %29, align 4, !tbaa !18
  br label %32

32:                                               ; preds = %_ZN11ast_manager7inc_refEP3ast.exit.i10, %27
  %33 = load ptr, ptr %3, align 8, !tbaa !134
  %.not.i4.i11 = icmp eq ptr %33, null
  br i1 %.not.i4.i11, label %_ZN7obj_refI3app11ast_managerEaSEPS0_.exit, label %34

34:                                               ; preds = %32
  %35 = getelementptr inbounds nuw i8, ptr %3, i64 8
  %36 = load ptr, ptr %35, align 8, !tbaa !136
  %37 = getelementptr inbounds nuw i8, ptr %33, i64 8
  %38 = load i32, ptr %37, align 4, !tbaa !18
  %39 = add i32 %38, -1
  store i32 %39, ptr %37, align 4, !tbaa !18
  %40 = icmp eq i32 %39, 0
  br i1 %40, label %41, label %_ZN7obj_refI3app11ast_managerEaSEPS0_.exit

41:                                               ; preds = %34
  call void @_ZN11ast_manager11delete_nodeEP3ast(ptr noundef nonnull align 8 dereferenceable(976) %36, ptr noundef nonnull %33)
  br label %_ZN7obj_refI3app11ast_managerEaSEPS0_.exit

_ZN7obj_refI3app11ast_managerEaSEPS0_.exit:       ; preds = %32, %34, %41
  store ptr %28, ptr %3, align 8, !tbaa !134
  br label %42

42:                                               ; preds = %_ZN7obj_refI3app11ast_managerEaSEPS0_.exit, %_ZN7obj_refI4expr11ast_managerEaSEPS0_.exit
  call void @llvm.lifetime.end.p0(i64 8, ptr nonnull %7) #19
  ret void
}